ARM GAS  C:\Users\MANISH~1\AppData\Local\Temp\ccJyGm22.s 			page 1


   1              		.cpu cortex-m0
   2              		.fpu softvfp
   3              		.eabi_attribute 20, 1
   4              		.eabi_attribute 21, 1
   5              		.eabi_attribute 23, 3
   6              		.eabi_attribute 24, 1
   7              		.eabi_attribute 25, 1
   8              		.eabi_attribute 26, 1
   9              		.eabi_attribute 30, 6
  10              		.eabi_attribute 34, 0
  11              		.eabi_attribute 18, 4
  12              		.code	16
  13              		.file	"BLE_gatt.c"
  14              		.text
  15              	.Ltext0:
  16              		.cfi_sections	.debug_frame
  17              		.comm	cyBle_state,1,1
  18              		.global	cyBle_gatts
  19              		.section	.rodata
  20              		.align	2
  21              		.type	cyBle_gatts, %object
  22              		.size	cyBle_gatts, 6
  23              	cyBle_gatts:
  24 0000 0800     		.short	8
  25 0002 0A00     		.short	10
  26 0004 0B00     		.short	11
  27              		.data
  28              		.align	2
  29              		.type	cyBle_attValues, %object
  30              		.size	cyBle_attValues, 51
  31              	cyBle_attValues:
  32 0000 43       		.byte	67
  33 0001 61       		.byte	97
  34 0002 70       		.byte	112
  35 0003 53       		.byte	83
  36 0004 65       		.byte	101
  37 0005 6E       		.byte	110
  38 0006 73       		.byte	115
  39 0007 65       		.byte	101
  40 0008 20       		.byte	32
  41 0009 50       		.byte	80
  42 000a 72       		.byte	114
  43 000b 6F       		.byte	111
  44 000c 78       		.byte	120
  45 000d 69       		.byte	105
  46 000e 6D       		.byte	109
  47 000f 69       		.byte	105
  48 0010 74       		.byte	116
  49 0011 79       		.byte	121
  50 0012 00       		.byte	0
  51 0013 00       		.byte	0
  52 0014 3C       		.byte	60
  53 0015 00       		.byte	0
  54 0016 50       		.byte	80
  55 0017 00       		.byte	0
  56 0018 00       		.byte	0
  57 0019 00       		.byte	0
ARM GAS  C:\Users\MANISH~1\AppData\Local\Temp\ccJyGm22.s 			page 2


  58 001a C8       		.byte	-56
  59 001b 00       		.byte	0
  60 001c 00       		.byte	0
  61 001d 00       		.byte	0
  62 001e 00       		.byte	0
  63 001f 00       		.byte	0
  64 0020 00       		.byte	0
  65 0021 43       		.byte	67
  66 0022 61       		.byte	97
  67 0023 70       		.byte	112
  68 0024 53       		.byte	83
  69 0025 65       		.byte	101
  70 0026 6E       		.byte	110
  71 0027 73       		.byte	115
  72 0028 65       		.byte	101
  73 0029 20       		.byte	32
  74 002a 50       		.byte	80
  75 002b 72       		.byte	114
  76 002c 6F       		.byte	111
  77 002d 78       		.byte	120
  78 002e 69       		.byte	105
  79 002f 6D       		.byte	109
  80 0030 69       		.byte	105
  81 0031 74       		.byte	116
  82 0032 79       		.byte	121
  83              		.global	cyBle_attValuesCCCDFlashMemory
  84 0033 00       		.section	.rodata
  85 0006 00000000 		.align	7
  85      00000000 
  85      00000000 
  85      00000000 
  85      00000000 
  86              		.type	cyBle_attValuesCCCDFlashMemory, %object
  87              		.size	cyBle_attValuesCCCDFlashMemory, 20
  88              	cyBle_attValuesCCCDFlashMemory:
  89 0080 00000000 		.space	20
  89      00000000 
  89      00000000 
  89      00000000 
  89      00000000 
  90              		.comm	cyBle_attValuesCCCD,4,4
  91              		.global	cyBle_gattDB
  92              		.align	2
  93              		.type	cyBle_gattDB, %object
  94              		.size	cyBle_gattDB, 320
  95              	cyBle_gattDB:
  96 0094 0100     		.short	1
  97 0096 0028     		.short	10240
  98 0098 01000000 		.word	1
  99 009c 0700     		.short	7
 100 009e 0000     		.space	2
 101 00a0 0018     		.short	6144
 102 00a2 0000     		.space	2
 103 00a4 00000000 		.word	0
 104 00a8 0200     		.short	2
 105 00aa 0328     		.short	10243
 106 00ac 01020000 		.word	513
ARM GAS  C:\Users\MANISH~1\AppData\Local\Temp\ccJyGm22.s 			page 3


 107 00b0 0300     		.short	3
 108 00b2 0000     		.space	2
 109 00b4 002A     		.short	10752
 110 00b6 0000     		.space	2
 111 00b8 00000000 		.word	0
 112 00bc 0300     		.short	3
 113 00be 002A     		.short	10752
 114 00c0 01020000 		.word	513
 115 00c4 0300     		.short	3
 116 00c6 0000     		.space	2
 117 00c8 1200     		.short	18
 118 00ca 0000     		.space	2
 119 00cc 00000000 		.word	cyBle_attValues
 120 00d0 0400     		.short	4
 121 00d2 0328     		.short	10243
 122 00d4 01020000 		.word	513
 123 00d8 0500     		.short	5
 124 00da 0000     		.space	2
 125 00dc 012A     		.short	10753
 126 00de 0000     		.space	2
 127 00e0 00000000 		.word	0
 128 00e4 0500     		.short	5
 129 00e6 012A     		.short	10753
 130 00e8 01020000 		.word	513
 131 00ec 0500     		.short	5
 132 00ee 0000     		.space	2
 133 00f0 0200     		.short	2
 134 00f2 0000     		.space	2
 135 00f4 12000000 		.word	cyBle_attValues+18
 136 00f8 0600     		.short	6
 137 00fa 0328     		.short	10243
 138 00fc 01020000 		.word	513
 139 0100 0700     		.short	7
 140 0102 0000     		.space	2
 141 0104 042A     		.short	10756
 142 0106 0000     		.space	2
 143 0108 00000000 		.word	0
 144 010c 0700     		.short	7
 145 010e 042A     		.short	10756
 146 0110 01020000 		.word	513
 147 0114 0700     		.short	7
 148 0116 0000     		.space	2
 149 0118 0800     		.short	8
 150 011a 0000     		.space	2
 151 011c 14000000 		.word	cyBle_attValues+20
 152 0120 0800     		.short	8
 153 0122 0028     		.short	10240
 154 0124 01000000 		.word	1
 155 0128 0B00     		.short	11
 156 012a 0000     		.space	2
 157 012c 0118     		.short	6145
 158 012e 0000     		.space	2
 159 0130 00000000 		.word	0
 160 0134 0900     		.short	9
 161 0136 0328     		.short	10243
 162 0138 01220000 		.word	8705
 163 013c 0B00     		.short	11
ARM GAS  C:\Users\MANISH~1\AppData\Local\Temp\ccJyGm22.s 			page 4


 164 013e 0000     		.space	2
 165 0140 052A     		.short	10757
 166 0142 0000     		.space	2
 167 0144 00000000 		.word	0
 168 0148 0A00     		.short	10
 169 014a 052A     		.short	10757
 170 014c 01220000 		.word	8705
 171 0150 0B00     		.short	11
 172 0152 0000     		.space	2
 173 0154 0400     		.short	4
 174 0156 0000     		.space	2
 175 0158 1C000000 		.word	cyBle_attValues+28
 176 015c 0B00     		.short	11
 177 015e 0229     		.short	10498
 178 0160 040A0000 		.word	2564
 179 0164 0B00     		.short	11
 180 0166 0000     		.space	2
 181 0168 0200     		.short	2
 182 016a 0000     		.space	2
 183 016c 00000000 		.word	cyBle_attValuesCCCD
 184 0170 0C00     		.short	12
 185 0172 0028     		.short	10240
 186 0174 01000000 		.word	1
 187 0178 1000     		.short	16
 188 017a 0000     		.space	2
 189 017c B5CA     		.short	-13643
 190 017e 0000     		.space	2
 191 0180 00000000 		.word	0
 192 0184 0D00     		.short	13
 193 0186 0328     		.short	10243
 194 0188 01100000 		.word	4097
 195 018c 1000     		.short	16
 196 018e 0000     		.space	2
 197 0190 A1CA     		.short	-13663
 198 0192 0000     		.space	2
 199 0194 00000000 		.word	0
 200 0198 0E00     		.short	14
 201 019a A1CA     		.short	-13663
 202 019c 00100000 		.word	4096
 203 01a0 1000     		.short	16
 204 01a2 0000     		.space	2
 205 01a4 0100     		.short	1
 206 01a6 0000     		.space	2
 207 01a8 20000000 		.word	cyBle_attValues+32
 208 01ac 0F00     		.short	15
 209 01ae 0229     		.short	10498
 210 01b0 260A0000 		.word	2598
 211 01b4 0F00     		.short	15
 212 01b6 0000     		.space	2
 213 01b8 0200     		.short	2
 214 01ba 0000     		.space	2
 215 01bc 02000000 		.word	cyBle_attValuesCCCD+2
 216 01c0 1000     		.short	16
 217 01c2 0129     		.short	10497
 218 01c4 01020000 		.word	513
 219 01c8 1000     		.short	16
 220 01ca 0000     		.space	2
ARM GAS  C:\Users\MANISH~1\AppData\Local\Temp\ccJyGm22.s 			page 5


 221 01cc 1200     		.short	18
 222 01ce 0000     		.space	2
 223 01d0 21000000 		.word	cyBle_attValues+33
 224 01d4 00000000 		.section	.text.CyBle_GattsReInitGattDb,"ax",%progbits
 224      00000000 
 224      00000000 
 224      00000000 
 224      00000000 
 225              		.align	2
 226              		.global	CyBle_GattsReInitGattDb
 227              		.code	16
 228              		.thumb_func
 229              		.type	CyBle_GattsReInitGattDb, %function
 230              	CyBle_GattsReInitGattDb:
 231              	.LFB2:
 232              		.file 1 ".\\Generated_Source\\PSoC4\\BLE_gatt.c"
   1:.\Generated_Source\PSoC4/BLE_gatt.c **** /*******************************************************************************
   2:.\Generated_Source\PSoC4/BLE_gatt.c **** File Name: CYBLE_gatt.c
   3:.\Generated_Source\PSoC4/BLE_gatt.c **** Version 1.20
   4:.\Generated_Source\PSoC4/BLE_gatt.c **** 
   5:.\Generated_Source\PSoC4/BLE_gatt.c **** Description:
   6:.\Generated_Source\PSoC4/BLE_gatt.c ****  This file contains the source code for the GATT API of the BLE Component.
   7:.\Generated_Source\PSoC4/BLE_gatt.c **** 
   8:.\Generated_Source\PSoC4/BLE_gatt.c **** ********************************************************************************
   9:.\Generated_Source\PSoC4/BLE_gatt.c **** Copyright 2014-2015, Cypress Semiconductor Corporation.  All rights reserved.
  10:.\Generated_Source\PSoC4/BLE_gatt.c **** You may use this file only in accordance with the license, terms, conditions,
  11:.\Generated_Source\PSoC4/BLE_gatt.c **** disclaimers, and limitations in the end user license agreement accompanying
  12:.\Generated_Source\PSoC4/BLE_gatt.c **** the software package with which this file was provided.
  13:.\Generated_Source\PSoC4/BLE_gatt.c **** *******************************************************************************/
  14:.\Generated_Source\PSoC4/BLE_gatt.c **** 
  15:.\Generated_Source\PSoC4/BLE_gatt.c **** 
  16:.\Generated_Source\PSoC4/BLE_gatt.c **** #include "BLE_eventHandler.h"
  17:.\Generated_Source\PSoC4/BLE_gatt.c **** 
  18:.\Generated_Source\PSoC4/BLE_gatt.c **** 
  19:.\Generated_Source\PSoC4/BLE_gatt.c **** /***************************************
  20:.\Generated_Source\PSoC4/BLE_gatt.c **** ##Global variables
  21:.\Generated_Source\PSoC4/BLE_gatt.c **** ***************************************/
  22:.\Generated_Source\PSoC4/BLE_gatt.c **** 
  23:.\Generated_Source\PSoC4/BLE_gatt.c **** CYBLE_STATE_T cyBle_state;
  24:.\Generated_Source\PSoC4/BLE_gatt.c **** 
  25:.\Generated_Source\PSoC4/BLE_gatt.c **** 
  26:.\Generated_Source\PSoC4/BLE_gatt.c **** #if(CYBLE_GATT_ROLE_SERVER)
  27:.\Generated_Source\PSoC4/BLE_gatt.c ****     
  28:.\Generated_Source\PSoC4/BLE_gatt.c ****     const CYBLE_GATTS_T cyBle_gatts =
  29:.\Generated_Source\PSoC4/BLE_gatt.c **** {
  30:.\Generated_Source\PSoC4/BLE_gatt.c ****     0x0008u,    /* Handle of the GATT service */
  31:.\Generated_Source\PSoC4/BLE_gatt.c ****     0x000Au,    /* Handle of the Service Changed characteristic */
  32:.\Generated_Source\PSoC4/BLE_gatt.c ****     0x000Bu,    /* Handle of the Client Characteristic Configuration descriptor */
  33:.\Generated_Source\PSoC4/BLE_gatt.c **** };
  34:.\Generated_Source\PSoC4/BLE_gatt.c ****     
  35:.\Generated_Source\PSoC4/BLE_gatt.c ****     static uint8 cyBle_attValues[0x33u] = {
  36:.\Generated_Source\PSoC4/BLE_gatt.c **** /* Device Name */
  37:.\Generated_Source\PSoC4/BLE_gatt.c **** (uint8)'C', (uint8)'a', (uint8)'p', (uint8)'S', (uint8)'e', (uint8)'n', (uint8)'s', (uint8)'e', (ui
  38:.\Generated_Source\PSoC4/BLE_gatt.c **** (uint8)'r', (uint8)'o', (uint8)'x', (uint8)'i', (uint8)'m', (uint8)'i', (uint8)'t', (uint8)'y', 
  39:.\Generated_Source\PSoC4/BLE_gatt.c **** 
  40:.\Generated_Source\PSoC4/BLE_gatt.c **** /* Appearance */
  41:.\Generated_Source\PSoC4/BLE_gatt.c **** 0x00u, 0x00u, 
ARM GAS  C:\Users\MANISH~1\AppData\Local\Temp\ccJyGm22.s 			page 6


  42:.\Generated_Source\PSoC4/BLE_gatt.c **** 
  43:.\Generated_Source\PSoC4/BLE_gatt.c **** /* Peripheral Preferred Connection Parameters */
  44:.\Generated_Source\PSoC4/BLE_gatt.c **** 0x3Cu, 0x00u, 0x50u, 0x00u, 0x00u, 0x00u, 0xC8u, 0x00u, 
  45:.\Generated_Source\PSoC4/BLE_gatt.c **** 
  46:.\Generated_Source\PSoC4/BLE_gatt.c **** /* Service Changed */
  47:.\Generated_Source\PSoC4/BLE_gatt.c **** 0x00u, 0x00u, 0x00u, 0x00u, 
  48:.\Generated_Source\PSoC4/BLE_gatt.c **** 
  49:.\Generated_Source\PSoC4/BLE_gatt.c **** /* CapSense Proximity */
  50:.\Generated_Source\PSoC4/BLE_gatt.c **** 0x00u, 
  51:.\Generated_Source\PSoC4/BLE_gatt.c **** 
  52:.\Generated_Source\PSoC4/BLE_gatt.c **** /* Characteristic User Description */
  53:.\Generated_Source\PSoC4/BLE_gatt.c **** (uint8)'C', (uint8)'a', (uint8)'p', (uint8)'S', (uint8)'e', (uint8)'n', (uint8)'s', (uint8)'e', (ui
  54:.\Generated_Source\PSoC4/BLE_gatt.c **** (uint8)'r', (uint8)'o', (uint8)'x', (uint8)'i', (uint8)'m', (uint8)'i', (uint8)'t', (uint8)'y', 
  55:.\Generated_Source\PSoC4/BLE_gatt.c **** 
  56:.\Generated_Source\PSoC4/BLE_gatt.c **** };
  57:.\Generated_Source\PSoC4/BLE_gatt.c **** 
  58:.\Generated_Source\PSoC4/BLE_gatt.c **** #if defined(__GNUC__) || defined(__ARMCC_VERSION)
  59:.\Generated_Source\PSoC4/BLE_gatt.c **** const uint8 cyBle_attValuesCCCDFlashMemory[CYBLE_GAP_MAX_BONDED_DEVICE + 1u][CYBLE_GATT_DB_CCCD_COU
  60:.\Generated_Source\PSoC4/BLE_gatt.c **** #elif defined(__ICCARM__)
  61:.\Generated_Source\PSoC4/BLE_gatt.c **** /* The cyBle_attValuesCCCDFlashMemory[] should be aligned to the size of a Flash row */
  62:.\Generated_Source\PSoC4/BLE_gatt.c **** #pragma data_alignment=CY_FLASH_SIZEOF_ROW
  63:.\Generated_Source\PSoC4/BLE_gatt.c **** const uint8 cyBle_attValuesCCCDFlashMemory[CYBLE_GAP_MAX_BONDED_DEVICE + 1u][CYBLE_GATT_DB_CCCD_COU
  64:.\Generated_Source\PSoC4/BLE_gatt.c **** #endif /* defined(__GNUC__) || defined(__ARMCC_VERSION) */
  65:.\Generated_Source\PSoC4/BLE_gatt.c **** {
  66:.\Generated_Source\PSoC4/BLE_gatt.c **** /* Client Characteristic Configuration */
  67:.\Generated_Source\PSoC4/BLE_gatt.c **** 0x00u, 0x00u, 
  68:.\Generated_Source\PSoC4/BLE_gatt.c **** 
  69:.\Generated_Source\PSoC4/BLE_gatt.c **** /* Client Characteristic Configuration */
  70:.\Generated_Source\PSoC4/BLE_gatt.c **** 0x00u, 0x00u, 
  71:.\Generated_Source\PSoC4/BLE_gatt.c **** 
  72:.\Generated_Source\PSoC4/BLE_gatt.c **** },
  73:.\Generated_Source\PSoC4/BLE_gatt.c **** {
  74:.\Generated_Source\PSoC4/BLE_gatt.c **** /* Client Characteristic Configuration */
  75:.\Generated_Source\PSoC4/BLE_gatt.c **** 0x00u, 0x00u, 
  76:.\Generated_Source\PSoC4/BLE_gatt.c **** 
  77:.\Generated_Source\PSoC4/BLE_gatt.c **** /* Client Characteristic Configuration */
  78:.\Generated_Source\PSoC4/BLE_gatt.c **** 0x00u, 0x00u, 
  79:.\Generated_Source\PSoC4/BLE_gatt.c **** 
  80:.\Generated_Source\PSoC4/BLE_gatt.c **** },
  81:.\Generated_Source\PSoC4/BLE_gatt.c **** {
  82:.\Generated_Source\PSoC4/BLE_gatt.c **** /* Client Characteristic Configuration */
  83:.\Generated_Source\PSoC4/BLE_gatt.c **** 0x00u, 0x00u, 
  84:.\Generated_Source\PSoC4/BLE_gatt.c **** 
  85:.\Generated_Source\PSoC4/BLE_gatt.c **** /* Client Characteristic Configuration */
  86:.\Generated_Source\PSoC4/BLE_gatt.c **** 0x00u, 0x00u, 
  87:.\Generated_Source\PSoC4/BLE_gatt.c **** 
  88:.\Generated_Source\PSoC4/BLE_gatt.c **** },
  89:.\Generated_Source\PSoC4/BLE_gatt.c **** {
  90:.\Generated_Source\PSoC4/BLE_gatt.c **** /* Client Characteristic Configuration */
  91:.\Generated_Source\PSoC4/BLE_gatt.c **** 0x00u, 0x00u, 
  92:.\Generated_Source\PSoC4/BLE_gatt.c **** 
  93:.\Generated_Source\PSoC4/BLE_gatt.c **** /* Client Characteristic Configuration */
  94:.\Generated_Source\PSoC4/BLE_gatt.c **** 0x00u, 0x00u, 
  95:.\Generated_Source\PSoC4/BLE_gatt.c **** 
  96:.\Generated_Source\PSoC4/BLE_gatt.c **** },
  97:.\Generated_Source\PSoC4/BLE_gatt.c **** {
  98:.\Generated_Source\PSoC4/BLE_gatt.c **** /* Client Characteristic Configuration */
ARM GAS  C:\Users\MANISH~1\AppData\Local\Temp\ccJyGm22.s 			page 7


  99:.\Generated_Source\PSoC4/BLE_gatt.c **** 0x00u, 0x00u, 
 100:.\Generated_Source\PSoC4/BLE_gatt.c **** 
 101:.\Generated_Source\PSoC4/BLE_gatt.c **** /* Client Characteristic Configuration */
 102:.\Generated_Source\PSoC4/BLE_gatt.c **** 0x00u, 0x00u, 
 103:.\Generated_Source\PSoC4/BLE_gatt.c **** 
 104:.\Generated_Source\PSoC4/BLE_gatt.c **** },
 105:.\Generated_Source\PSoC4/BLE_gatt.c **** };
 106:.\Generated_Source\PSoC4/BLE_gatt.c **** uint8 cyBle_attValuesCCCD[CYBLE_GATT_DB_CCCD_COUNT];
 107:.\Generated_Source\PSoC4/BLE_gatt.c **** 
 108:.\Generated_Source\PSoC4/BLE_gatt.c **** const CYBLE_GATTS_DB_T cyBle_gattDB[0x10u] = {
 109:.\Generated_Source\PSoC4/BLE_gatt.c **** { 0x0001u, 0x2800u /* Primary service                     */, 0x00000001u /*        */, 0x0007u, {{
 110:.\Generated_Source\PSoC4/BLE_gatt.c **** { 0x0002u, 0x2803u /* Characteristic                      */, 0x00000201u /* rd     */, 0x0003u, {{
 111:.\Generated_Source\PSoC4/BLE_gatt.c **** { 0x0003u, 0x2A00u /* Device Name                         */, 0x00000201u /* rd     */, 0x0003u, {{
 112:.\Generated_Source\PSoC4/BLE_gatt.c **** { 0x0004u, 0x2803u /* Characteristic                      */, 0x00000201u /* rd     */, 0x0005u, {{
 113:.\Generated_Source\PSoC4/BLE_gatt.c **** { 0x0005u, 0x2A01u /* Appearance                          */, 0x00000201u /* rd     */, 0x0005u, {{
 114:.\Generated_Source\PSoC4/BLE_gatt.c **** { 0x0006u, 0x2803u /* Characteristic                      */, 0x00000201u /* rd     */, 0x0007u, {{
 115:.\Generated_Source\PSoC4/BLE_gatt.c **** { 0x0007u, 0x2A04u /* Peripheral Preferred Connection Par */, 0x00000201u /* rd     */, 0x0007u, {{
 116:.\Generated_Source\PSoC4/BLE_gatt.c **** { 0x0008u, 0x2800u /* Primary service                     */, 0x00000001u /*        */, 0x000Bu, {{
 117:.\Generated_Source\PSoC4/BLE_gatt.c **** { 0x0009u, 0x2803u /* Characteristic                      */, 0x00002201u /* rd,ind */, 0x000Bu, {{
 118:.\Generated_Source\PSoC4/BLE_gatt.c **** { 0x000Au, 0x2A05u /* Service Changed                     */, 0x00002201u /* rd,ind */, 0x000Bu, {{
 119:.\Generated_Source\PSoC4/BLE_gatt.c **** { 0x000Bu, 0x2902u /* Client Characteristic Configuration */, 0x00000A04u /* rd,wr  */, 0x000Bu, {{
 120:.\Generated_Source\PSoC4/BLE_gatt.c **** { 0x000Cu, 0x2800u /* Primary service                     */, 0x00000001u /*        */, 0x0010u, {{
 121:.\Generated_Source\PSoC4/BLE_gatt.c **** { 0x000Du, 0x2803u /* Characteristic                      */, 0x00001001u /* ntf    */, 0x0010u, {{
 122:.\Generated_Source\PSoC4/BLE_gatt.c **** { 0x000Eu, 0xCAA1u /* CapSense Proximity                  */, 0x00001000u /* ntf    */, 0x0010u, {{
 123:.\Generated_Source\PSoC4/BLE_gatt.c **** { 0x000Fu, 0x2902u /* Client Characteristic Configuration */, 0x00000A26u /* rd,wr  */, 0x000Fu, {{
 124:.\Generated_Source\PSoC4/BLE_gatt.c **** { 0x0010u, 0x2901u /* Characteristic User Description     */, 0x00000201u /* rd     */, 0x0010u, {{
 125:.\Generated_Source\PSoC4/BLE_gatt.c **** };
 126:.\Generated_Source\PSoC4/BLE_gatt.c **** 
 127:.\Generated_Source\PSoC4/BLE_gatt.c **** 
 128:.\Generated_Source\PSoC4/BLE_gatt.c **** #endif /* (CYBLE_GATT_ROLE_SERVER) */
 129:.\Generated_Source\PSoC4/BLE_gatt.c **** 
 130:.\Generated_Source\PSoC4/BLE_gatt.c **** #if(CYBLE_GATT_ROLE_CLIENT)
 131:.\Generated_Source\PSoC4/BLE_gatt.c ****     
 132:.\Generated_Source\PSoC4/BLE_gatt.c **** CYBLE_CLIENT_STATE_T cyBle_clientState;
 133:.\Generated_Source\PSoC4/BLE_gatt.c **** CYBLE_GATTC_T cyBle_gattc;
 134:.\Generated_Source\PSoC4/BLE_gatt.c ****     
 135:.\Generated_Source\PSoC4/BLE_gatt.c **** #endif /* (CYBLE_GATT_ROLE_CLIENT) */
 136:.\Generated_Source\PSoC4/BLE_gatt.c **** 
 137:.\Generated_Source\PSoC4/BLE_gatt.c **** 
 138:.\Generated_Source\PSoC4/BLE_gatt.c **** #if(CYBLE_GATT_ROLE_SERVER)
 139:.\Generated_Source\PSoC4/BLE_gatt.c **** 
 140:.\Generated_Source\PSoC4/BLE_gatt.c **** /****************************************************************************** 
 141:.\Generated_Source\PSoC4/BLE_gatt.c **** ##Function Name: CyBle_GattsReInitGattDb
 142:.\Generated_Source\PSoC4/BLE_gatt.c **** *******************************************************************************
 143:.\Generated_Source\PSoC4/BLE_gatt.c **** 
 144:.\Generated_Source\PSoC4/BLE_gatt.c **** Summary:
 145:.\Generated_Source\PSoC4/BLE_gatt.c ****  Reinitializes the GATT database.
 146:.\Generated_Source\PSoC4/BLE_gatt.c **** 
 147:.\Generated_Source\PSoC4/BLE_gatt.c **** Parameters:
 148:.\Generated_Source\PSoC4/BLE_gatt.c ****  None
 149:.\Generated_Source\PSoC4/BLE_gatt.c **** 
 150:.\Generated_Source\PSoC4/BLE_gatt.c **** Return:
 151:.\Generated_Source\PSoC4/BLE_gatt.c ****  CYBLE_API_RESULT_T: An API result states if the API succeeded or failed with
 152:.\Generated_Source\PSoC4/BLE_gatt.c ****  error codes:
 153:.\Generated_Source\PSoC4/BLE_gatt.c ****   * CYBLE_ERROR_OK: GATT database was reinitialized successfully
 154:.\Generated_Source\PSoC4/BLE_gatt.c ****   * CYBLE_ERROR_INVALID_STATE: If the function is called in any state except
 155:.\Generated_Source\PSoC4/BLE_gatt.c ****                                 CYBLE_STATE_DISCONNECTED.
ARM GAS  C:\Users\MANISH~1\AppData\Local\Temp\ccJyGm22.s 			page 8


 156:.\Generated_Source\PSoC4/BLE_gatt.c ****   * Any of the CyBle_GattsDbRegister() stack API function return values.
 157:.\Generated_Source\PSoC4/BLE_gatt.c **** 
 158:.\Generated_Source\PSoC4/BLE_gatt.c **** ******************************************************************************/
 159:.\Generated_Source\PSoC4/BLE_gatt.c **** CYBLE_API_RESULT_T CyBle_GattsReInitGattDb(void)
 160:.\Generated_Source\PSoC4/BLE_gatt.c **** {
 233              		.loc 1 160 0
 234              		.cfi_startproc
 235 0000 90B5     		push	{r4, r7, lr}
 236              		.cfi_def_cfa_offset 12
 237              		.cfi_offset 4, -12
 238              		.cfi_offset 7, -8
 239              		.cfi_offset 14, -4
 240 0002 83B0     		sub	sp, sp, #12
 241              		.cfi_def_cfa_offset 24
 242 0004 00AF     		add	r7, sp, #0
 243              		.cfi_def_cfa_register 7
 161:.\Generated_Source\PSoC4/BLE_gatt.c ****     CYBLE_API_RESULT_T apiResult;
 162:.\Generated_Source\PSoC4/BLE_gatt.c ****     
 163:.\Generated_Source\PSoC4/BLE_gatt.c ****     if(CYBLE_STATE_DISCONNECTED == CyBle_GetState())
 244              		.loc 1 163 0
 245 0006 0C4B     		ldr	r3, .L5
 246 0008 1B78     		ldrb	r3, [r3]
 247 000a 042B     		cmp	r3, #4
 248 000c 09D1     		bne	.L2
 164:.\Generated_Source\PSoC4/BLE_gatt.c ****     {
 165:.\Generated_Source\PSoC4/BLE_gatt.c ****         apiResult = CyBle_GattsDbRegister(cyBle_gattDB, CYBLE_GATT_DB_INDEX_COUNT, CYBLE_GATT_DB_MA
 249              		.loc 1 165 0
 250 000e BC1D     		add	r4, r7, #6
 251 0010 0A4B     		ldr	r3, .L5+4
 252 0012 181C     		mov	r0, r3
 253 0014 1021     		mov	r1, #16
 254 0016 1222     		mov	r2, #18
 255 0018 FFF7FEFF 		bl	CyBle_GattsDbRegister
 256 001c 031C     		mov	r3, r0
 257 001e 2380     		strh	r3, [r4]
 258 0020 03E0     		b	.L3
 259              	.L2:
 166:.\Generated_Source\PSoC4/BLE_gatt.c ****     }
 167:.\Generated_Source\PSoC4/BLE_gatt.c ****     else
 168:.\Generated_Source\PSoC4/BLE_gatt.c ****     {
 169:.\Generated_Source\PSoC4/BLE_gatt.c ****         apiResult = CYBLE_ERROR_INVALID_STATE;
 260              		.loc 1 169 0
 261 0022 BB1D     		add	r3, r7, #6
 262 0024 8322     		mov	r2, #131
 263 0026 5200     		lsl	r2, r2, #1
 264 0028 1A80     		strh	r2, [r3]
 265              	.L3:
 170:.\Generated_Source\PSoC4/BLE_gatt.c ****     }
 171:.\Generated_Source\PSoC4/BLE_gatt.c ****     
 172:.\Generated_Source\PSoC4/BLE_gatt.c ****     return(apiResult);
 266              		.loc 1 172 0
 267 002a BB1D     		add	r3, r7, #6
 268 002c 1B88     		ldrh	r3, [r3]
 173:.\Generated_Source\PSoC4/BLE_gatt.c **** }
 269              		.loc 1 173 0
 270 002e 181C     		mov	r0, r3
 271 0030 BD46     		mov	sp, r7
ARM GAS  C:\Users\MANISH~1\AppData\Local\Temp\ccJyGm22.s 			page 9


 272 0032 03B0     		add	sp, sp, #12
 273              		@ sp needed
 274 0034 90BD     		pop	{r4, r7, pc}
 275              	.L6:
 276 0036 C046     		.align	2
 277              	.L5:
 278 0038 00000000 		.word	cyBle_state
 279 003c 00000000 		.word	cyBle_gattDB
 280              		.cfi_endproc
 281              	.LFE2:
 282              		.size	CyBle_GattsReInitGattDb, .-CyBle_GattsReInitGattDb
 283              		.section	.text.CyBle_GattsWriteEventHandler,"ax",%progbits
 284              		.align	2
 285              		.global	CyBle_GattsWriteEventHandler
 286              		.code	16
 287              		.thumb_func
 288              		.type	CyBle_GattsWriteEventHandler, %function
 289              	CyBle_GattsWriteEventHandler:
 290              	.LFB3:
 174:.\Generated_Source\PSoC4/BLE_gatt.c **** 
 175:.\Generated_Source\PSoC4/BLE_gatt.c **** 
 176:.\Generated_Source\PSoC4/BLE_gatt.c **** /****************************************************************************** 
 177:.\Generated_Source\PSoC4/BLE_gatt.c **** ##Function Name: CyBle_GattsWriteEventHandler
 178:.\Generated_Source\PSoC4/BLE_gatt.c **** *******************************************************************************
 179:.\Generated_Source\PSoC4/BLE_gatt.c **** 
 180:.\Generated_Source\PSoC4/BLE_gatt.c **** Summary:
 181:.\Generated_Source\PSoC4/BLE_gatt.c ****  Handles the Write Request Event for GATT service.
 182:.\Generated_Source\PSoC4/BLE_gatt.c **** 
 183:.\Generated_Source\PSoC4/BLE_gatt.c **** Parameters:
 184:.\Generated_Source\PSoC4/BLE_gatt.c ****  *eventParam: The pointer to the data structure specified by the event.
 185:.\Generated_Source\PSoC4/BLE_gatt.c **** 
 186:.\Generated_Source\PSoC4/BLE_gatt.c **** Return:
 187:.\Generated_Source\PSoC4/BLE_gatt.c ****  * CYBLE_GATT_ERR_CODE_T: An API result returns one of the following status 
 188:.\Generated_Source\PSoC4/BLE_gatt.c ****     values
 189:.\Generated_Source\PSoC4/BLE_gatt.c ****  * CYBLE_GATT_ERR_NONE - Write is successful.
 190:.\Generated_Source\PSoC4/BLE_gatt.c **** 
 191:.\Generated_Source\PSoC4/BLE_gatt.c **** ******************************************************************************/
 192:.\Generated_Source\PSoC4/BLE_gatt.c **** CYBLE_GATT_ERR_CODE_T CyBle_GattsWriteEventHandler(CYBLE_GATTS_WRITE_REQ_PARAM_T *eventParam)
 193:.\Generated_Source\PSoC4/BLE_gatt.c **** {
 291              		.loc 1 193 0
 292              		.cfi_startproc
 293 0000 90B5     		push	{r4, r7, lr}
 294              		.cfi_def_cfa_offset 12
 295              		.cfi_offset 4, -12
 296              		.cfi_offset 7, -8
 297              		.cfi_offset 14, -4
 298 0002 85B0     		sub	sp, sp, #20
 299              		.cfi_def_cfa_offset 32
 300 0004 00AF     		add	r7, sp, #0
 301              		.cfi_def_cfa_register 7
 302 0006 7860     		str	r0, [r7, #4]
 194:.\Generated_Source\PSoC4/BLE_gatt.c ****     CYBLE_GATT_ERR_CODE_T gattErr = CYBLE_GATT_ERR_NONE;
 303              		.loc 1 194 0
 304 0008 3B1C     		mov	r3, r7
 305 000a 0F33     		add	r3, r3, #15
 306 000c 0022     		mov	r2, #0
 307 000e 1A70     		strb	r2, [r3]
ARM GAS  C:\Users\MANISH~1\AppData\Local\Temp\ccJyGm22.s 			page 10


 195:.\Generated_Source\PSoC4/BLE_gatt.c ****     
 196:.\Generated_Source\PSoC4/BLE_gatt.c ****     /* Client Characteristic Configuration descriptor write request */
 197:.\Generated_Source\PSoC4/BLE_gatt.c ****     if(eventParam->handleValPair.attrHandle == cyBle_gatts.cccdHandle)
 308              		.loc 1 197 0
 309 0010 7B68     		ldr	r3, [r7, #4]
 310 0012 9A89     		ldrh	r2, [r3, #12]
 311 0014 0B23     		mov	r3, #11
 312 0016 9A42     		cmp	r2, r3
 313 0018 37D1     		bne	.L8
 198:.\Generated_Source\PSoC4/BLE_gatt.c ****     {
 199:.\Generated_Source\PSoC4/BLE_gatt.c ****         /* Store value to database */
 200:.\Generated_Source\PSoC4/BLE_gatt.c ****         gattErr = CyBle_GattsWriteAttributeValue(&eventParam->handleValPair, 0u, 
 314              		.loc 1 200 0
 315 001a 7B68     		ldr	r3, [r7, #4]
 316 001c 1A1D     		add	r2, r3, #4
 317 001e 7B68     		ldr	r3, [r7, #4]
 318 0020 3C1C     		mov	r4, r7
 319 0022 0F34     		add	r4, r4, #15
 320 0024 101C     		mov	r0, r2
 321 0026 0021     		mov	r1, #0
 322 0028 1A1C     		mov	r2, r3
 323 002a 4023     		mov	r3, #64
 324 002c FFF7FEFF 		bl	CyBle_GattsWriteAttributeValue
 325 0030 031C     		mov	r3, r0
 326 0032 2370     		strb	r3, [r4]
 201:.\Generated_Source\PSoC4/BLE_gatt.c ****                         &eventParam->connHandle, CYBLE_GATT_DB_PEER_INITIATED);
 202:.\Generated_Source\PSoC4/BLE_gatt.c ****         
 203:.\Generated_Source\PSoC4/BLE_gatt.c ****         if(CYBLE_GATT_ERR_NONE == gattErr)
 327              		.loc 1 203 0
 328 0034 3B1C     		mov	r3, r7
 329 0036 0F33     		add	r3, r3, #15
 330 0038 1B78     		ldrb	r3, [r3]
 331 003a 002B     		cmp	r3, #0
 332 003c 1DD1     		bne	.L9
 204:.\Generated_Source\PSoC4/BLE_gatt.c ****         {
 205:.\Generated_Source\PSoC4/BLE_gatt.c ****             if(CYBLE_IS_INDICATION_ENABLED_IN_PTR(eventParam->handleValPair.value.val))
 333              		.loc 1 205 0
 334 003e 7B68     		ldr	r3, [r7, #4]
 335 0040 5B68     		ldr	r3, [r3, #4]
 336 0042 181C     		mov	r0, r3
 337 0044 FFF7FEFF 		bl	CyBle_Get16ByPtr
 338 0048 031C     		mov	r3, r0
 339 004a 1A1C     		mov	r2, r3
 340 004c 0223     		mov	r3, #2
 341 004e 1340     		and	r3, r2
 342 0050 9BB2     		uxth	r3, r3
 343 0052 002B     		cmp	r3, #0
 344 0054 08D0     		beq	.L10
 206:.\Generated_Source\PSoC4/BLE_gatt.c ****             {
 207:.\Generated_Source\PSoC4/BLE_gatt.c ****                 CyBle_ApplCallback((uint32)CYBLE_EVT_GATTS_INDICATION_ENABLED, eventParam);
 345              		.loc 1 207 0
 346 0056 104B     		ldr	r3, .L12
 347 0058 1B68     		ldr	r3, [r3]
 348 005a 8222     		mov	r2, #130
 349 005c 5100     		lsl	r1, r2, #1
 350 005e 7A68     		ldr	r2, [r7, #4]
 351 0060 081C     		mov	r0, r1
ARM GAS  C:\Users\MANISH~1\AppData\Local\Temp\ccJyGm22.s 			page 11


 352 0062 111C     		mov	r1, r2
 353 0064 9847     		blx	r3
 354 0066 08E0     		b	.L9
 355              	.L10:
 208:.\Generated_Source\PSoC4/BLE_gatt.c ****             }
 209:.\Generated_Source\PSoC4/BLE_gatt.c ****             else
 210:.\Generated_Source\PSoC4/BLE_gatt.c ****             {
 211:.\Generated_Source\PSoC4/BLE_gatt.c ****                 CyBle_ApplCallback((uint32)CYBLE_EVT_GATTS_INDICATION_DISABLED, eventParam);
 356              		.loc 1 211 0
 357 0068 0B4B     		ldr	r3, .L12
 358 006a 1B68     		ldr	r3, [r3]
 359 006c 0622     		mov	r2, #6
 360 006e 111C     		mov	r1, r2
 361 0070 FF31     		add	r1, r1, #255
 362 0072 7A68     		ldr	r2, [r7, #4]
 363 0074 081C     		mov	r0, r1
 364 0076 111C     		mov	r1, r2
 365 0078 9847     		blx	r3
 366              	.L9:
 212:.\Generated_Source\PSoC4/BLE_gatt.c ****             }
 213:.\Generated_Source\PSoC4/BLE_gatt.c ****         }
 214:.\Generated_Source\PSoC4/BLE_gatt.c ****         cyBle_eventHandlerFlag &= (uint8)~CYBLE_CALLBACK;
 367              		.loc 1 214 0
 368 007a 084B     		ldr	r3, .L12+4
 369 007c 1B78     		ldrb	r3, [r3]
 370 007e DBB2     		uxtb	r3, r3
 371 0080 0122     		mov	r2, #1
 372 0082 9343     		bic	r3, r2
 373 0084 DAB2     		uxtb	r2, r3
 374 0086 054B     		ldr	r3, .L12+4
 375 0088 1A70     		strb	r2, [r3]
 376              	.L8:
 215:.\Generated_Source\PSoC4/BLE_gatt.c ****     }
 216:.\Generated_Source\PSoC4/BLE_gatt.c ****     return (gattErr);
 377              		.loc 1 216 0
 378 008a 3B1C     		mov	r3, r7
 379 008c 0F33     		add	r3, r3, #15
 380 008e 1B78     		ldrb	r3, [r3]
 217:.\Generated_Source\PSoC4/BLE_gatt.c **** }
 381              		.loc 1 217 0
 382 0090 181C     		mov	r0, r3
 383 0092 BD46     		mov	sp, r7
 384 0094 05B0     		add	sp, sp, #20
 385              		@ sp needed
 386 0096 90BD     		pop	{r4, r7, pc}
 387              	.L13:
 388              		.align	2
 389              	.L12:
 390 0098 00000000 		.word	CyBle_ApplCallback
 391 009c 00000000 		.word	cyBle_eventHandlerFlag
 392              		.cfi_endproc
 393              	.LFE3:
 394              		.size	CyBle_GattsWriteEventHandler, .-CyBle_GattsWriteEventHandler
 395              		.text
 396              	.Letext0:
 397              		.file 2 ".\\Generated_Source\\PSoC4\\cytypes.h"
 398              		.file 3 ".\\Generated_Source\\PSoC4\\BLE_Stack.h"
ARM GAS  C:\Users\MANISH~1\AppData\Local\Temp\ccJyGm22.s 			page 12


 399              		.file 4 ".\\Generated_Source\\PSoC4\\BLE_StackGatt.h"
 400              		.file 5 ".\\Generated_Source\\PSoC4\\BLE_StackGattServer.h"
 401              		.file 6 ".\\Generated_Source\\PSoC4\\BLE_StackGattDb.h"
 402              		.file 7 ".\\Generated_Source\\PSoC4\\BLE.h"
 403              		.file 8 ".\\Generated_Source\\PSoC4\\BLE_gatt.h"
 404              		.file 9 ".\\Generated_Source\\PSoC4\\BLE_eventHandler.h"